; ModuleID = '60/719.c'
source_filename = "60/719.c"
target datalayout = "e-m:e-p270:32:32-p271:32:32-p272:64:64-i64:64-f80:128-n8:16:32:64-S128"
target triple = "x86_64-pc-linux-gnu"

@.str = private unnamed_addr constant [3 x i8] c"%d\00", align 1
@.str.1 = private unnamed_addr constant [6 x i8] c"empty\00", align 1
@.str.2 = private unnamed_addr constant [7 x i8] c"%d %d\0A\00", align 1
@.str.3 = private unnamed_addr constant [7 x i8] c"empty\0A\00", align 1

; Function Attrs: noinline nounwind uwtable
define dso_local void @main() #0 {
  %1 = alloca i32, align 4
  %2 = alloca [10000 x i32], align 16
  %3 = alloca i32, align 4
  %4 = alloca i32, align 4
  %5 = alloca i32, align 4
  %6 = alloca i32, align 4
  %7 = alloca i32, align 4
  store i32 0, i32* %3, align 4
  store i32 0, i32* %6, align 4
  store i32 0, i32* %7, align 4
  %8 = call i32 (i8*, ...) @__isoc99_scanf(i8* getelementptr inbounds ([3 x i8], [3 x i8]* @.str, i64 0, i64 0), i32* %1)
  %9 = load i32, i32* %1, align 4
  %10 = icmp sle i32 %9, 4
  br i1 %10, label %11, label %13

11:                                               ; preds = %0
  %12 = call i32 (i8*, ...) @printf(i8* getelementptr inbounds ([6 x i8], [6 x i8]* @.str.1, i64 0, i64 0))
  br label %94

13:                                               ; preds = %0
  store i32 3, i32* %4, align 4
  br label %14

14:                                               ; preds = %50, %13
  %15 = load i32, i32* %4, align 4
  %16 = load i32, i32* %1, align 4
  %17 = icmp sle i32 %15, %16
  br i1 %17, label %18, label %53

18:                                               ; preds = %14
  store i32 3, i32* %5, align 4
  br label %19

19:                                               ; preds = %35, %18
  %20 = load i32, i32* %5, align 4
  %21 = sitofp i32 %20 to double
  %22 = load i32, i32* %4, align 4
  %23 = sitofp i32 %22 to double
  %24 = call double @sqrt(double %23) #3
  %25 = fcmp ole double %21, %24
  br i1 %25, label %26, label %38

26:                                               ; preds = %19
  %27 = load i32, i32* %4, align 4
  %28 = load i32, i32* %5, align 4
  %29 = srem i32 %27, %28
  %30 = icmp eq i32 %29, 0
  br i1 %30, label %31, label %34

31:                                               ; preds = %26
  %32 = load i32, i32* %7, align 4
  %33 = add nsw i32 %32, 1
  store i32 %33, i32* %7, align 4
  br label %38

34:                                               ; preds = %26
  br label %35

35:                                               ; preds = %34
  %36 = load i32, i32* %5, align 4
  %37 = add nsw i32 %36, 2
  store i32 %37, i32* %5, align 4
  br label %19

38:                                               ; preds = %31, %19
  %39 = load i32, i32* %7, align 4
  %40 = icmp eq i32 %39, 0
  br i1 %40, label %41, label %48

41:                                               ; preds = %38
  %42 = load i32, i32* %4, align 4
  %43 = load i32, i32* %3, align 4
  %44 = sext i32 %43 to i64
  %45 = getelementptr inbounds [10000 x i32], [10000 x i32]* %2, i64 0, i64 %44
  store i32 %42, i32* %45, align 4
  %46 = load i32, i32* %3, align 4
  %47 = add nsw i32 %46, 1
  store i32 %47, i32* %3, align 4
  br label %49

48:                                               ; preds = %38
  store i32 0, i32* %7, align 4
  br label %49

49:                                               ; preds = %48, %41
  br label %50

50:                                               ; preds = %49
  %51 = load i32, i32* %4, align 4
  %52 = add nsw i32 %51, 2
  store i32 %52, i32* %4, align 4
  br label %14

53:                                               ; preds = %14
  store i32 0, i32* %5, align 4
  br label %54

54:                                               ; preds = %85, %53
  %55 = load i32, i32* %5, align 4
  %56 = load i32, i32* %3, align 4
  %57 = sub nsw i32 %56, 1
  %58 = icmp slt i32 %55, %57
  br i1 %58, label %59, label %88

59:                                               ; preds = %54
  %60 = load i32, i32* %5, align 4
  %61 = sext i32 %60 to i64
  %62 = getelementptr inbounds [10000 x i32], [10000 x i32]* %2, i64 0, i64 %61
  %63 = load i32, i32* %62, align 4
  %64 = add nsw i32 %63, 2
  %65 = load i32, i32* %5, align 4
  %66 = add nsw i32 %65, 1
  %67 = sext i32 %66 to i64
  %68 = getelementptr inbounds [10000 x i32], [10000 x i32]* %2, i64 0, i64 %67
  %69 = load i32, i32* %68, align 4
  %70 = icmp eq i32 %64, %69
  br i1 %70, label %71, label %84

71:                                               ; preds = %59
  %72 = load i32, i32* %5, align 4
  %73 = sext i32 %72 to i64
  %74 = getelementptr inbounds [10000 x i32], [10000 x i32]* %2, i64 0, i64 %73
  %75 = load i32, i32* %74, align 4
  %76 = load i32, i32* %5, align 4
  %77 = add nsw i32 %76, 1
  %78 = sext i32 %77 to i64
  %79 = getelementptr inbounds [10000 x i32], [10000 x i32]* %2, i64 0, i64 %78
  %80 = load i32, i32* %79, align 4
  %81 = call i32 (i8*, ...) @printf(i8* getelementptr inbounds ([7 x i8], [7 x i8]* @.str.2, i64 0, i64 0), i32 %75, i32 %80)
  %82 = load i32, i32* %6, align 4
  %83 = add nsw i32 %82, 1
  store i32 %83, i32* %6, align 4
  br label %84

84:                                               ; preds = %71, %59
  br label %85

85:                                               ; preds = %84
  %86 = load i32, i32* %5, align 4
  %87 = add nsw i32 %86, 1
  store i32 %87, i32* %5, align 4
  br label %54

88:                                               ; preds = %54
  %89 = load i32, i32* %6, align 4
  %90 = icmp eq i32 %89, 0
  br i1 %90, label %91, label %93

91:                                               ; preds = %88
  %92 = call i32 (i8*, ...) @printf(i8* getelementptr inbounds ([7 x i8], [7 x i8]* @.str.3, i64 0, i64 0))
  br label %93

93:                                               ; preds = %91, %88
  br label %94

94:                                               ; preds = %93, %11
  ret void
}

declare dso_local i32 @__isoc99_scanf(i8*, ...) #1

declare dso_local i32 @printf(i8*, ...) #1

; Function Attrs: nounwind
declare dso_local double @sqrt(double) #2


!llvm.module.flags = !{!0}
!llvm.ident = !{!1}

!0 = !{i32 1, !"wchar_size", i32 4}
!1 = !{!"clang version 10.0.0-4ubuntu1 "}
